target datalayout = "e-m:e-p270:32:32-p271:32:32-p272:64:64-i64:64-i128:128-f80:128-n8:16:32:64-S128"
target triple = "x86_64-pc-linux-gnu"

%struct.AVTXContext = type { i32, i32, ptr, ptr, ptr, ptr, [4 x ptr], i32, [4 x ptr], ptr, i32, i64, i32, float, double, ptr }
%struct.FFTXCodelet = type { ptr, ptr, i32, i64, [16 x i32], i32, i32, i32, ptr, ptr, i32, i32 }

; Function Attrs: cold nounwind optsize uwtable
define internal i32 @ff_tx_dcstI_init_int32_c(ptr noundef %0, ptr noundef %1, i64 noundef %2, ptr noundef %3, i32 noundef %4, i32 noundef %5, ptr noundef %6) #0 {
  %8 = alloca i32, align 4
  %9 = alloca ptr, align 8
  %10 = alloca ptr, align 8
  %11 = alloca i64, align 8
  %12 = alloca ptr, align 8
  %13 = alloca i32, align 4
  %14 = alloca i32, align 4
  %15 = alloca ptr, align 8
  %16 = alloca i32, align 4
  %17 = alloca float, align 4
  %18 = alloca i32, align 4
  store ptr %0, ptr %9, align 8, !tbaa !17
  store ptr %1, ptr %10, align 8, !tbaa !58
  store i64 %2, ptr %11, align 8, !tbaa !30
  store ptr %3, ptr %12, align 8, !tbaa !59
  store i32 %4, ptr %13, align 4, !tbaa !4
  store i32 %5, ptr %14, align 4, !tbaa !4
  store ptr %6, ptr %15, align 8, !tbaa !8
  call void @llvm.lifetime.start.p0(i64 4, ptr %16) #10
  call void @llvm.lifetime.start.p0(i64 4, ptr %17) #10
  %19 = load ptr, ptr %15, align 8, !tbaa !8
  %20 = load float, ptr %19, align 4, !tbaa !91
  store float %20, ptr %17, align 4, !tbaa !91
  %21 = load i32, ptr %14, align 4, !tbaa !4
  %22 = icmp ne i32 %21, 0
  br i1 %22, label %23, label %34

23:                                               ; preds = %7
  %24 = load i32, ptr %13, align 4, !tbaa !4
  %25 = mul nsw i32 %24, 2
  store i32 %25, ptr %13, align 4, !tbaa !4
  %26 = load ptr, ptr %9, align 8, !tbaa !17
  %27 = getelementptr inbounds nuw %struct.AVTXContext, ptr %26, i32 0, i32 0
  %28 = load i32, ptr %27, align 8, !tbaa !21
  %29 = mul nsw i32 %28, 2
  store i32 %29, ptr %27, align 8, !tbaa !21
  %30 = load float, ptr %17, align 4, !tbaa !91
  %31 = fpext nsz float %30 to double
  %32 = fmul nsz double %31, 5.000000e-01
  %33 = fptrunc nsz double %32 to float
  store float %33, ptr %17, align 4, !tbaa !91
  br label %34

34:                                               ; preds = %23, %7
  %35 = load ptr, ptr %10, align 8, !tbaa !58
  %36 = getelementptr inbounds nuw %struct.FFTXCodelet, ptr %35, i32 0, i32 2
  %37 = load i32, ptr %36, align 8, !tbaa !166
  %38 = icmp eq i32 %37, 14
  %39 = select i1 %38, i32 8, i32 16
  %40 = sext i32 %39 to i64
  %41 = load i64, ptr %11, align 8, !tbaa !30
  %42 = or i64 %41, %40
  store i64 %42, ptr %11, align 8, !tbaa !30
  %43 = load ptr, ptr %9, align 8, !tbaa !17
  %44 = load i64, ptr %11, align 8, !tbaa !30
  %45 = load i32, ptr %13, align 4, !tbaa !4
  %46 = sub nsw i32 %45, 1
  %47 = load ptr, ptr %10, align 8, !tbaa !58
  %48 = getelementptr inbounds nuw %struct.FFTXCodelet, ptr %47, i32 0, i32 2
  %49 = load i32, ptr %48, align 8, !tbaa !166
  %50 = icmp eq i32 %49, 17
  %51 = zext i1 %50 to i32
  %52 = mul nsw i32 2, %51
  %53 = add nsw i32 %46, %52
  %54 = mul nsw i32 %53, 2
  %55 = call i32 @ff_tx_init_subtx(ptr noundef %43, i32 noundef 8, i64 noundef %44, ptr noundef null, i32 noundef %54, i32 noundef 0, ptr noundef %17)
  store i32 %55, ptr %16, align 4, !tbaa !4
  %56 = icmp ne i32 %55, 0
  br i1 %56, label %57, label %59

57:                                               ; preds = %34
  %58 = load i32, ptr %16, align 4, !tbaa !4
  store i32 %58, ptr %8, align 4
  store i32 1, ptr %18, align 4
  br label %74

59:                                               ; preds = %34
  %60 = load i32, ptr %13, align 4, !tbaa !4
  %61 = add nsw i32 %60, 1
  %62 = mul nsw i32 %61, 2
  %63 = sext i32 %62 to i64
  %64 = mul i64 %63, 4
  %65 = call noalias ptr @av_mallocz(i64 noundef %64)
  %66 = load ptr, ptr %9, align 8, !tbaa !17
  %67 = getelementptr inbounds nuw %struct.AVTXContext, ptr %66, i32 0, i32 4
  store ptr %65, ptr %67, align 8, !tbaa !64
  %68 = load ptr, ptr %9, align 8, !tbaa !17
  %69 = getelementptr inbounds nuw %struct.AVTXContext, ptr %68, i32 0, i32 4
  %70 = load ptr, ptr %69, align 8, !tbaa !64
  %71 = icmp ne ptr %70, null
  br i1 %71, label %73, label %72

72:                                               ; preds = %59
  store i32 -12, ptr %8, align 4
  store i32 1, ptr %18, align 4
  br label %74

73:                                               ; preds = %59
  store i32 0, ptr %8, align 4
  store i32 1, ptr %18, align 4
  br label %74

74:                                               ; preds = %73, %72, %57
  call void @llvm.lifetime.end.p0(i64 4, ptr %17) #10
  call void @llvm.lifetime.end.p0(i64 4, ptr %16) #10
  %75 = load i32, ptr %8, align 4
  ret i32 %75
}